; ModuleID = '1/900.c'
source_filename = "1/900.c"
target datalayout = "e-m:e-p270:32:32-p271:32:32-p272:64:64-i64:64-f80:128-n8:16:32:64-S128"
target triple = "x86_64-pc-linux-gnu"

@count = common dso_local global i32 0, align 4
@.str = private unnamed_addr constant [3 x i8] c"%d\00", align 1
@.str.1 = private unnamed_addr constant [4 x i8] c"%d\0A\00", align 1

; Function Attrs: noinline nounwind uwtable
define dso_local void @f(i32 %0, i32 %1) #0 {
  %3 = alloca i32, align 4
  %4 = alloca i32, align 4
  %5 = alloca i32, align 4
  store i32 %0, i32* %3, align 4
  store i32 %1, i32* %4, align 4
  %6 = load i32, i32* %3, align 4
  %7 = load i32, i32* %4, align 4
  %8 = icmp eq i32 %6, %7
  br i1 %8, label %9, label %12

9:                                                ; preds = %2
  %10 = load i32, i32* @count, align 4
  %11 = add nsw i32 %10, 1
  store i32 %11, i32* @count, align 4
  br label %32

12:                                               ; preds = %2
  %13 = load i32, i32* %3, align 4
  %14 = load i32, i32* %4, align 4
  %15 = srem i32 %13, %14
  %16 = icmp ne i32 %15, 0
  br i1 %16, label %17, label %18

17:                                               ; preds = %12
  br label %32

18:                                               ; preds = %12
  %19 = load i32, i32* %4, align 4
  store i32 %19, i32* %5, align 4
  br label %20

20:                                               ; preds = %29, %18
  %21 = load i32, i32* %5, align 4
  %22 = load i32, i32* %3, align 4
  %23 = icmp sle i32 %21, %22
  br i1 %23, label %24, label %32

24:                                               ; preds = %20
  %25 = load i32, i32* %3, align 4
  %26 = load i32, i32* %4, align 4
  %27 = sdiv i32 %25, %26
  %28 = load i32, i32* %5, align 4
  call void @f(i32 %27, i32 %28)
  br label %29

29:                                               ; preds = %24
  %30 = load i32, i32* %5, align 4
  %31 = add nsw i32 %30, 1
  store i32 %31, i32* %5, align 4
  br label %20

32:                                               ; preds = %9, %17, %20
  ret void
}

; Function Attrs: noinline nounwind uwtable
define dso_local i32 @main() #0 {
  %1 = alloca i32, align 4
  %2 = alloca i32, align 4
  %3 = alloca i32, align 4
  %4 = alloca i32, align 4
  %5 = alloca i32, align 4
  store i32 0, i32* %1, align 4
  %6 = call i32 (i8*, ...) @__isoc99_scanf(i8* getelementptr inbounds ([3 x i8], [3 x i8]* @.str, i64 0, i64 0), i32* %4)
  store i32 1, i32* %5, align 4
  br label %7

7:                                                ; preds = %26, %0
  %8 = load i32, i32* %5, align 4
  %9 = load i32, i32* %4, align 4
  %10 = icmp sle i32 %8, %9
  br i1 %10, label %11, label %29

11:                                               ; preds = %7
  store i32 0, i32* @count, align 4
  %12 = call i32 (i8*, ...) @__isoc99_scanf(i8* getelementptr inbounds ([3 x i8], [3 x i8]* @.str, i64 0, i64 0), i32* %2)
  store i32 2, i32* %3, align 4
  br label %13

13:                                               ; preds = %20, %11
  %14 = load i32, i32* %3, align 4
  %15 = load i32, i32* %2, align 4
  %16 = icmp sle i32 %14, %15
  br i1 %16, label %17, label %23

17:                                               ; preds = %13
  %18 = load i32, i32* %2, align 4
  %19 = load i32, i32* %3, align 4
  call void @f(i32 %18, i32 %19)
  br label %20

20:                                               ; preds = %17
  %21 = load i32, i32* %3, align 4
  %22 = add nsw i32 %21, 1
  store i32 %22, i32* %3, align 4
  br label %13

23:                                               ; preds = %13
  %24 = load i32, i32* @count, align 4
  %25 = call i32 (i8*, ...) @printf(i8* getelementptr inbounds ([4 x i8], [4 x i8]* @.str.1, i64 0, i64 0), i32 %24)
  br label %26

26:                                               ; preds = %23
  %27 = load i32, i32* %5, align 4
  %28 = add nsw i32 %27, 1
  store i32 %28, i32* %5, align 4
  br label %7

29:                                               ; preds = %7
  ret i32 0
}

declare dso_local i32 @__isoc99_scanf(i8*, ...) #1

declare dso_local i32 @printf(i8*, ...) #1


!llvm.module.flags = !{!0}
!llvm.ident = !{!1}

!0 = !{i32 1, !"wchar_size", i32 4}
!1 = !{!"clang version 10.0.0-4ubuntu1 "}
