; ModuleID = 'source-C-CXX/0/900.c'
source_filename = "source-C-CXX/0/900.c"
target datalayout = "e-m:e-p270:32:32-p271:32:32-p272:64:64-i64:64-f80:128-n8:16:32:64-S128"
target triple = "x86_64-pc-linux-gnu"

@count = dso_local local_unnamed_addr global i32 0, align 4
@.str = private unnamed_addr constant [3 x i8] c"%d\00", align 1
@.str.1 = private unnamed_addr constant [4 x i8] c"%d\0A\00", align 1

; Function Attrs: nofree nosync nounwind sspstrong uwtable
define dso_local void @f(i32 %0, i32 %1) local_unnamed_addr #0 {
  %3 = icmp eq i32 %0, %1
  br i1 %3, label %4, label %7

4:                                                ; preds = %2
  %5 = load i32, i32* @count, align 4, !tbaa !5
  %6 = add nsw i32 %5, 1
  store i32 %6, i32* @count, align 4, !tbaa !5
  br label %17

7:                                                ; preds = %2
  %8 = srem i32 %0, %1
  %9 = sdiv i32 %0, %1
  %10 = icmp ne i32 %8, 0
  %11 = icmp sgt i32 %1, %0
  %12 = or i1 %10, %11
  br i1 %12, label %17, label %13

13:                                               ; preds = %7, %13
  %14 = phi i32 [ %15, %13 ], [ %1, %7 ]
  tail call void @f(i32 %9, i32 %14)
  %15 = add i32 %14, 1
  %16 = icmp eq i32 %14, %0
  br i1 %16, label %17, label %13, !llvm.loop !9

17:                                               ; preds = %13, %7, %4
  ret void
}

; Function Attrs: argmemonly mustprogress nofree nosync nounwind willreturn
declare void @llvm.lifetime.start.p0i8(i64 immarg, i8* nocapture) #1

; Function Attrs: argmemonly mustprogress nofree nosync nounwind willreturn
declare void @llvm.lifetime.end.p0i8(i64 immarg, i8* nocapture) #1

; Function Attrs: nofree nounwind sspstrong uwtable
define dso_local i32 @main() local_unnamed_addr #2 {
  %1 = alloca i32, align 4
  %2 = alloca i32, align 4
  %3 = bitcast i32* %1 to i8*
  call void @llvm.lifetime.start.p0i8(i64 4, i8* nonnull %3) #4
  %4 = bitcast i32* %2 to i8*
  call void @llvm.lifetime.start.p0i8(i64 4, i8* nonnull %4) #4
  %5 = call i32 (i8*, ...) @__isoc99_scanf(i8* getelementptr inbounds ([3 x i8], [3 x i8]* @.str, i64 0, i64 0), i32* nonnull %2)
  %6 = load i32, i32* %2, align 4, !tbaa !5
  %7 = icmp slt i32 %6, 1
  br i1 %7, label %25, label %8

8:                                                ; preds = %0, %19
  %9 = phi i32 [ %22, %19 ], [ 1, %0 ]
  store i32 0, i32* @count, align 4, !tbaa !5
  %10 = call i32 (i8*, ...) @__isoc99_scanf(i8* getelementptr inbounds ([3 x i8], [3 x i8]* @.str, i64 0, i64 0), i32* nonnull %1)
  %11 = load i32, i32* %1, align 4, !tbaa !5
  %12 = icmp slt i32 %11, 2
  br i1 %12, label %19, label %13

13:                                               ; preds = %8, %13
  %14 = phi i32 [ %17, %13 ], [ %11, %8 ]
  %15 = phi i32 [ %16, %13 ], [ 2, %8 ]
  call void @f(i32 %14, i32 %15)
  %16 = add nuw nsw i32 %15, 1
  %17 = load i32, i32* %1, align 4, !tbaa !5
  %18 = icmp slt i32 %15, %17
  br i1 %18, label %13, label %19, !llvm.loop !11

19:                                               ; preds = %13, %8
  %20 = load i32, i32* @count, align 4, !tbaa !5
  %21 = call i32 (i8*, ...) @printf(i8* nonnull dereferenceable(1) getelementptr inbounds ([4 x i8], [4 x i8]* @.str.1, i64 0, i64 0), i32 %20)
  %22 = add nuw nsw i32 %9, 1
  %23 = load i32, i32* %2, align 4, !tbaa !5
  %24 = icmp slt i32 %9, %23
  br i1 %24, label %8, label %25, !llvm.loop !12

25:                                               ; preds = %19, %0
  call void @llvm.lifetime.end.p0i8(i64 4, i8* nonnull %4) #4
  call void @llvm.lifetime.end.p0i8(i64 4, i8* nonnull %3) #4
  ret i32 0
}

; Function Attrs: nofree nounwind
declare noundef i32 @__isoc99_scanf(i8* nocapture noundef readonly, ...) local_unnamed_addr #3

; Function Attrs: nofree nounwind
declare noundef i32 @printf(i8* nocapture noundef readonly, ...) local_unnamed_addr #3


!llvm.module.flags = !{!0, !1, !2, !3}
!llvm.ident = !{!4}

!0 = !{i32 1, !"wchar_size", i32 4}
!1 = !{i32 7, !"PIC Level", i32 2}
!2 = !{i32 7, !"PIE Level", i32 2}
!3 = !{i32 7, !"uwtable", i32 1}
!4 = !{!"clang version 13.0.0"}
!5 = !{!6, !6, i64 0}
!6 = !{!"int", !7, i64 0}
!7 = !{!"omnipotent char", !8, i64 0}
!8 = !{!"Simple C/C++ TBAA"}
!9 = distinct !{!9, !10}
!10 = !{!"llvm.loop.mustprogress"}
!11 = distinct !{!11, !10}
!12 = distinct !{!12, !10}
